; Function Attrs: nounwind uwtable
define ptr @l___private_Lean_Elab_Inductive_0__Lean_Elab_Command_reorderCtorArgs(ptr noundef %0, ptr noundef %1, ptr noundef %2, ptr noundef %3, ptr noundef %4, ptr noundef %5) local_unnamed_addr #0 {
  %7 = ptrtoint ptr %0 to i64
  %8 = and i64 %7, 1
  %.not = icmp eq i64 %8, 0
  br i1 %.not, label %9, label %lean_inc.exit

9:                                                ; preds = %6
  %.val.i = load i32, ptr %0, align 4, !tbaa !4
  %10 = icmp sgt i32 %.val.i, 0
  br i1 %10, label %11, label %13, !prof !9

11:                                               ; preds = %9
  %12 = add nuw i32 %.val.i, 1
  store i32 %12, ptr %0, align 4, !tbaa !4
  br label %lean_inc.exit

13:                                               ; preds = %9
  %.not.i = icmp eq i32 %.val.i, 0
  br i1 %.not.i, label %lean_inc.exit, label %14

14:                                               ; preds = %13
  tail call void @lean_inc_ref_cold(ptr noundef nonnull %0) #6
  br label %lean_inc.exit

lean_inc.exit:                                    ; preds = %14, %13, %11, %6
  tail call void @lean_inc_heartbeat() #6
  %15 = tail call noalias ptr @mi_malloc_small(i64 noundef 32) #6
  %16 = icmp eq ptr %15, null
  br i1 %16, label %17, label %lean_alloc_closure.exit

17:                                               ; preds = %lean_inc.exit
  tail call void @lean_internal_panic_out_of_memory() #7
  unreachable

lean_alloc_closure.exit:                          ; preds = %lean_inc.exit
  %18 = getelementptr inbounds nuw i8, ptr %15, i64 4
  store i32 1, ptr %15, align 4, !tbaa !4
  store i32 -184549344, ptr %18, align 4
  %19 = getelementptr inbounds nuw i8, ptr %15, i64 8
  store ptr @l___private_Lean_Elab_Inductive_0__Lean_Elab_Command_reorderCtorArgs___lambda__1, ptr %19, align 8, !tbaa !10
  %20 = getelementptr inbounds nuw i8, ptr %15, i64 16
  store i16 8, ptr %20, align 8, !tbaa !16
  %21 = getelementptr inbounds nuw i8, ptr %15, i64 18
  store i16 1, ptr %21, align 2, !tbaa !16
  %22 = getelementptr inbounds nuw i8, ptr %15, i64 24
  store ptr %0, ptr %22, align 8, !tbaa !10
  %23 = tail call ptr @l_Lean_Meta_forallTelescopeReducing___at_Lean_Meta_getParamNames___spec__2___rarg(ptr noundef %0, ptr noundef nonnull %15, i8 noundef zeroext 0, ptr noundef %1, ptr noundef %2, ptr noundef %3, ptr noundef %4, ptr noundef %5) #6
  ret ptr %23
}